(lp0
S"DescriptionSpecifications:Material:plasticColor:transparentVolume:10mlLength:22.5cmNeedle length:4cmApplication: add ink, the ink is directly inserted into the ink cartridge.Note:Only used as ink needle, but not for other purposes.Please farfrom your kids,to prevent the child touch the needle.Package include:2/5/10xPrinter ink adding needle\xc2\xa0Detail ImageSimilar ItemsPayment1.We accept PayPal only.2.All major credit cards are accepted through secure payment processor PayPal.3.Payment must be received within 7 business days of auction closing.4.We ship to your eBay or Paypal address. Please make sure your eBay and Paypal address is correct before you pay.Shipping1.We ship to your eBay or Paypal address. Please make sure your eBay and Paypal address is correct before you pay.2.Items will be shipped within 1-3 business day when we received payment.3.Delivery time depends on destination and other factors;4.International buyers please note:\xc2\xa0\xc2\xa0a.Import duties, taxes and charges are not included in the item price or shipping charges. These charges are buyer\xe2\x80\x99s responsibility. We will try our best to reduce the risk of the custom duties.\xc2\xa0\xc2\xa0b.Please check with your country's customs office to determine what these additional costs will be prior to buying."
p1
aS'Store Categories\nStore home\nHealth & Beauty\nBaby\nBusiness & Industrial\nComputers & Networking\nHome & Garden\nRC Helicopter & Accessories\nSporting Goods\nCameras & Photo\nJewellery & Watches\nCell Phones Accessories\nMusical Instruments Gear\nPet Supplies\nClothing,Shoes & Accessories\neBay Motors\nOther\nFor 5X Eyeglasses Sunglasses Glasses Plastic Frame Display/Show Stand Holder\n100% Brand New.\nColor: Clear\nMaterial: Plastic\nSuitable for counter\ndisplay\n5 pairs glasses\nstand holder display\nHolds 5 pairs of\neyeglasses, easy installation and good portability\nSize: approx. 16 x\n13 x 31cm/ 6.29 x 5.11 x 12.2"(L x W x H)\nAccessory only!\nGlasses not included.\nPackage Content:\n1 x Eyeglasses Frame Display Holder\nVisit Our eBay Store!\nPowered by SoldEazy'
p2
aS"Untitled Document\n1:1 Human Anatomical Brain Professional New Dissection Medical Teaching Model I\nProduct Information\nDescription&Feature:\nApplication:\n1.Shows the structure of Brain2.Using in teaching and preoperative counselingIncludingI. Cerebrum1. Frontal lobe2. Parietal lobe3. Temporal lobe4. Occipital lobe5. Insula6. Hippocampus7. Lateral ventricles8. Corpus callosum9. Fornix10. Internal carotid artery11. Middle cerebral artery12. Anterior cerebral artery13. Posterior cerebral artery14. Basilar artery15. Vertebral artery II. Cerebellum16. Vermis of cerebellum17. Hemisphere of cerebellum18. Superior cerebellar artery19. Anterior inferior cerebellar artery20. Posterior inferior cerebellar arteryIII. Diencephalon21. Thalamus22. Hypothalamus23. Hypophysis24. Optic nerve25. Pineal body26. Medial geniculate body27. Lateral geniculare body IV. Mesencephalon28. Superior colliculi29. Inferior colliculi30. Trochlear nerve31. Oculomotor nerve32. Trigeminal nerve33. Abducent nerve34. Facial nerve and intermediate nerve35. Vestibulocochlear nerve VI. Medulla oblongata36. Pyramid37. Olive38. Glossopharyngeal nerve39. Vagus nerve40. Accessory nerve41. Hypoglossal nerve42.V. PonsCondition: 100% Brand NewMaterial: PVCSize:13.5*12.5*16cmAny question be free to contact us\nCommunications\nWe will actively update our buyers with email\nmessages regarding the status of their orders.\nPlease make sure your email address registered with\neBay is current and you adjust the spam filter to\nallow messages from us.\nWe will send you email when:\nThe eBay auction/item has ended and you're the\nwinning bidder/buyer of the item.\nAfter you have made the payment.\nAfter your order is shipped.\nAfter the item has been shipped, you can also retrieve\nyour shipping information at CN POST\nweb site by using your email address and the eBay\nitem number.\nAccepted Payment Methods\nThe\nfollowing forms of payment are accepted:\nPaypal Only\nWe only ship item to Paypal address. Don't\noffer change address.\nShipping Time & Charge\nYour order will be shipped within 1 business days after\nwe have received your payment.\nU.S. Domestic\nDomestic Packages are usually shipped via USPS or CN\nPOST from China.\nDelivery time varies between 13-23 business days or\nlonger depending on the shipping area (i.e Hawaii,\nAlaska, APO).\nSome U.S domestic packages will be trackable and the\ntracking number will be emailed to the buyer or can\nbe retreived at USPS website\nInternational\nInternational delivery usually takes between 20-25\ndays for delivery, in some rare cases, it could take\nup to 25-30 business days.\nBuyer should responsible for any import duty/taxes\nlevy by the shipping destination country.\nIf order\nover 5 items and made combined payment. All\ninternational packages will have a tracking number\nwhich will be emailed to the buyer or can be\nretrieved at CN Post website\nEngineered for professional eBay sellers\xef\xbc\x81"
p3
aS'Description:Brand new and high qualityUsed to draw radial lines. setting bevels and transferring angles.Ideal for engineers. craft persons. model makers. etc.Made of high quality ABS plastic.Double graduation from 0 to 180\xc2\xb0.Easy measurement in length and depth.\xc2\xa0Type: universal angleMeasuring range: 0-180 degreesMeasurement accuracy: 1 degreeScope: 0-180 degreesScale value: 1Net weight: 40gMaterial: ABS plasticSize: 15.5 * 9cmWeight: 30gSpecifications:Draw radial linesSetting bevelsTransferring anglesDouble graduation from 0 to 180\xc2\xb0Easy measurement in length and depthProtractor And Angle FinderPackage Included:1 x Angle finder protractorNotes:Due to the difference between different monitors, the pictures may not reflect the actual color of the item.Compare the detail sizes with yours, please allow 1-3cm error, due to manual measurement.Please leaving a message before you give the bad feedback, if the products have some problems.Thanks for your understandings.'
p4
aS'Product Description\nShipping\nPayment\nReturn Policy&Feedback\nContact Us\nSpecifications:Color: BlackMaterial: Ceramic + alloyQuantity of\xc2\xa0built-in balls: 7Uses: Finger spinner, skateboard.Outer diameter: 22mmInner diameter: 8mmThickness: 7mm\nPackage includes:1x Roller Skates Ceramic Ball Inline Skate Bearing\nShipping\nAll items will be shipped to buyer\'s ebay address.Before you pay, please make sure your address in ebay matches the address you would like us to ship to.\nAll items will be shipped within 24-48 working hours upon receipt of payment.\nIn most cases, delivery takes around 15-25 business days, it\'s highly depended on the efficiency of the shpping carrier. If your item doesn\'t arrive on time, please contact us immediately for further assistance.\nPayment\nWe only accept payment through Paypal.\nPlease make sure you have a valid PayPal account prior bidding.\nReturn Policy&Feedback\nIf any item is defective upon receipt, please contact us for the return address, return is accepted within 14 days after the buyer receiving the item. Returned item has to be in its original condition. Buyer is responsible for return shipping costs. After receiving the return we will make a replacement depends on our available stock, if not available, a refund will be issued.\nDear buyers, we appreciate your business, if you are satisfied with our service, please leave us a positive feedback and rate the details of the transaction (Detailed Seller Ratings) with a "PERFECT 5 STARS".Your recognition will make us more confident to develop business and serve you better.\nOur goal is to make sure you are a happy buyer and pleasant shopping with us. Please email us before leaving any 1 or 2 ratings, negative feedback or open any dispute. We understand the concerns and frustrations you might have, and will do our endeavor to resolve the issues. Please give us the opportunity to resolve any problem.\nContact Us\nWe care about our valued buyers, if you have any questions, our Customer Service staffs will be very glad to help you. We try our best to reply your email as soon as possible, please kindly allow 24 hours for us to response. Thank you.\nAbout item:For the functional products in our shop (such as: Chargers, Data cables), we make sure that the functions are the same as description, but the actual color and shape may looks a little different from pictures because of the technical improvement and manufacturing variance. Please be advised before you bid.'
p5
aS"10pcs Black PP3 MN1604 9V 9volt Battery Holder Clip Snap On Connector Cable Lead Description Made of soft leatherT fonts, with red and black connecting linesThe lenght of line is about 6cmExcellent material, fine workmanshipIt is an environmental 9V battery buckle Made of soft leatherT fonts, with red and Black connecting linesThe lenght of line is about 6cmExcellent material, fine workmanshipIt is an environmental 9V battery buckleColor: BlackThis is 9V I-Fonts Soft Shell Battery Buckle.Unique design and high quality.Save power and protect environment.Good choice for you!Package included:10 x 9V I-Fonts Soft Shell Battery Buckle\xc2\xa0Warm Tips: Please note that the color may be a little different due to the effect of light.\xc2\xa0 And all the measurements allow 1-3cm errors due to manual measurement.\nHigh quality in EU and US quality standard converse : 1 inch = 2.54cm or 1cm = 0.393 inch\xc2\xa0 NOTE: the product in the picture maybe larger than actual one,\nPlease check the size before bidding !!!\nThank\nyou and\nhappy\npurchase!\npayment\nWe\nonly\naccept\nPaypal\nas\npayment\nat\nthis\ntime.\nPlease\npay\nthe\nexact\namount\nindicated\non\ninvoice.\nIncorrect\npayment\nwill\ndelay\nthe\nshipping.\nWe\nare\nan\ninternational\nseller\nso\nPLEASE\nCHECK\nTHE\nSHIPPING\nFEE\non\ninvoice.\nPayment\nmust\nbe\npaid\nwithin\n3\ndays.\nOnce\nthe\npayment\nis\nreceived\n&\nverified,\nwe\nwill\nmail\nout\nthe\nshipment\nin 3\nworking-business\ndays.\nIF\nYOU\nNEED\nINSURANCE,\nplease\ne-mail\nus\nfirst\nthen\nwe\nwill\ninform\nyou\nwith\nthe\nexact\namount.\nshipment\nTo worldwide via airmail shipping fee :\xc2\xa0We will arrange shipping for you within 48 Hours after payment cleared except the holidays.\n-We only ship to the confirmed address provided by PayPal. Before you pay, please make sure your address in PayPal matches the address you would like us to ship to. If not, please let us know before we sent you the package, or we will not be responsible for any loss. hope you could understand.\n-We ship items to Worldwide. Thank you!\nI hope all\nof us try\ntogether to\ncreate a\nbetter\nenvironment\nfor ebay\nshopping\n!!!\nContact Us\nOur working time: Beijing time : Monday to Saturday 8:30 am to 5:30 pm. We do not work holidays in China If you send email to us,In our working hours will be resumed within 24 hours.\nIf you we are not satisfied with the product or service ,please contact me and don't give us negative or natural feedback,We must give you a satisfactory solution.\nFeedback\nFeedback is\na vital part\nof the Ebay\ncommunity.\nPositive\nFeedback is\nautomatically\nleft after\nreceiving\ncleared\npayment from\nyou.\nIt is very\nimportant\nfor high DSR,\nwe will\nalways do\nour best to\nsend out the\npackage at\nthe first\ntime, Sorry\nfor the\ninconvenience\nas the post\noffice and\ncustom\nhandling\ndelay.\nYour postive\nfeedback and\nhigh DSR\nstar can\nresult with\ndiscount in\ncost which\nfor listing,\nwe make sure\nthat we will\nspend it on\nour better\nservice and\nprice.We will work\nhard to\nresolve any\nissue that\nmight come\nup, so\nplease\ncontact us\nbefore\nleaving any\nNegative or\nneutral\nFeedback.\nplease\nnotice:\nwe will ship\nout the\norder in 1-2\nbusiness\ndays after\npayment\ncleared. we\nonly send to\nthe order\naccording to\nthe address\non ebay, the\naddress\ncannot be\nchanged once\nwe pack the\norder,\nplease\nreconfirm it\nbefore you\nsend the\npayment.\n(business\ndays is not\ninclude\nweekend and\nholiday).\nonce your\nitem arrives\nin\nsatisfying\ncondition,\nplease leave\npositive\nfeedback and\nhigh DSR for\nus. if there\nhave any\nproblem when\nyou receive\nyour item,\nor you have\nany\nquestions\nabout the\nshipping,\nplease don't\nleave\nnegative or\nneutral\nfeedback\nbefore you\ncontact us.\nwe promise\nto help you\nsolve the\nproblem\nwell.\nthanks in\nadvance.\nMade of soft leatherT fonts, with red and black connecting linesThe lenght of line is about 6cmExcellent material, fine workmanshipIt is an environmental 9V battery buckle Made of soft leatherT fonts, with red and Black connecting linesThe lenght of line is about 6cmExcellent material, fine workmanshipIt is an environmental 9V battery buckleColor: BlackThis is 9V I-Fonts Soft Shell Battery Buckle.Unique design and high quality.Save power and protect environment.Good choice for you!Package included:10 x 9V I-Fonts Soft Shell Battery Buckle"
p6
aS"15 mm x 2mm Disc Earth Neodymium Super strong Magnets N35 Craft ModelProduct\xc2\xa0Product InformatioMatierial: Neodym Rare Earth MagnetGrade: N35Farbe: Shiny SilverGr\xc3\xb6\xc3\x9fe: Disc 15 mm x 2 mm (+ / - 0,1 mm)Menge: (1,2,5,10,20,50) St\xc3\xbcck, w\xc3\xa4hlen Sie eine beim Kauf.Starke magnetische NdFeB Disc. NdFeB ist ein Permanentmagnet-Technologie.Seltene Erden Neodym starke K\xc3\xbchlschrankmagnete\xc2\xa0\xc2\xa0Package\xc2\xa0includes:Neodymium Disc Rare Earth N35 Magnet 15x2mm Strong Craft Models Fridge.QTY: (1,2,5,10,20,50) pcs , choose one when buying.Neodym-Disc Rare Earth N35 Magnet 15x2mm Strong Craft Models\xc2\xa0K\xc3\xbchlschrank St\xc3\xbcckzahl:(1,2,5,10,20,50),w\xc3\xa4hlen beim Kauf.Es gibt viele verschiedene Gr\xc3\xb6\xc3\x9fen von Magneten auf mein Gesch\xc3\xa4ft,Sie k\xc3\xb6nnen Sie mehr in einer Zeit, zu w\xc3\xa4hlen, zu danken.Payment\xc2\xa0PayPal only accept for confirmed addresses. All\xc2\xa0credit card payments will be processed through Paypal.\xc2\xa0\xc2\xa0I will ship to your mailing address on\xc2\xa0your Paypal\xc2\xa0account, NOT your Ebay one.\xc2\xa0Please\xc2\xa0DO NOT email us to change your mailing\xc2\xa0address after purchasing. Please kindly change your Paypal's record before your\xc2\xa0purchase. Payment has to be made within three (3) days of\xc2\xa0purchase. The earlier you paid,\xc2\xa0the earlier you will get your item.\xc2\xa0PayPal nur f\xc3\xbcr best\xc3\xa4tigte Adressen akzeptiert. Alle Zahlungen per Kreditkarte \xc3\xbcber Paypal verarbeitet werden.Ich werde Ihre Mailing-Adresse auf Ihrem Paypal-Konto versenden, NICHT Ihren Ebay ein.Bitte mailen Sie uns nicht, um Ihre Postadresse nach Kauf \xc3\xa4ndern. Bitte \xc3\xa4ndern Sie Ihre freundlicherweise Paypal Bilanz vor dem Kauf.Die Zahlung muss innerhalb von drei (3) Tagen nach dem Kauf erfolgen. Je fr\xc3\xbcher Sie bezahlt, desto fr\xc3\xbcher werden Sie Ihre Ware erhalten.\xc2\xa0Shipping\xc2\xa0Item will be sent out by registered airmail.\xc2\xa0All items will be dispatched ASAP. Normally, we will\xc2\xa0dispatch within 24 hours (on the weekdays - Monday to Friday) or the next\xc2\xa0business days after receiving payment.All items will be sent by airmail with normally\xc2\xa0takes 3-10 working days to arrive, but it varies with different countries.\xc2\xa0\xc2\xa0Ocasionally, it may take a bit longer time, due to Local dispatches, Customs\xc2\xa0checking, High Season Period, eg. X'mas or other reasons. Your patience is\xc2\xa0always appreciated!We guarantee that all delivery package must be\xc2\xa0packed securely for\xc2\xa0shipping.\xc2\xa0\xc2\xa0Einzelteil wird heraus per Luftpost verschickt.Alle Einzelteile werden so schnell wie m\xc3\xb6glich versendet werden Normalerweise werden wir innerhalb von 24 Stunden versandfertig (auf den Wochentagen - Montag bis Freitag). Oder an den folgenden Werktagen nach Zahlungseingang.Alle Einzelteile werden durch Luftpost mit dauert normalerweise 3-10 Werktage, um anzukommen, aber es \xc3\xa4ndert sich mit verschiedenen L\xc3\xa4ndern gesendet werden. Gelegentlich kann es etwas l\xc3\xa4nger dauern, wegen der lokalen Depeschen Customs \xc3\x9cberpr\xc3\xbcfung, Hochsaison, zB. X 'mas oder aus anderen Gr\xc3\xbcnden. Ihre Geduld ist immer willkommen!Wir garantieren, dass alle Lieferumfang muss sicher f\xc3\xbcr den Versand verpackt werden.\xc2\xa0Return, Replacement, Refund and Warrant\xc2\xa0We provide 100% refurn if you are not satisfied with\xc2\xa0the item(s). Contact us within 48 hours after you receive the item.\xc2\xa0Returned\xc2\xa0goods\xc2\xa0must be in brand new condition with all the original manufacturers\xc2\xa0packaging. Postage and Packing cost are Not refundable in any\xc2\xa0circumstances. You will pay for postage for returning the item.\xc2\xa0Wir bieten 100% refurn wenn Sie nicht mit dem Produkt (e) erf\xc3\xbcllt sind. Kontaktieren Sie uns innerhalb von 48 Stunden nachdem Sie das Einzelteil. Empfangen R\xc3\xbcckgabe muss im nagelneuen Zustand mit allen urspr\xc3\xbcnglichen Herstellern sein.Porto und Verpackung sind nicht r\xc3\xbcckverg\xc3\xbctbar unter keinen Umst\xc3\xa4nden.Sie werden f\xc3\xbcr Porto f\xc3\xbcr R\xc3\xbccksendung der Sache zahlen.\xc2\xa0FeedbackWe will\xc2\xa0leave you positive feedback after you have\xc2\xa0paid your order.Wir lassen Ihnen positives Feed-back, nachdem Sie Ihre Bestellung bezahlt haben.Please feel free to contact us\xc2\xa0for any\xc2\xa0enqueriesPowered by SoldEazy"
p7
aS"HomeElectronic ComponentChipsSensorArduino ModuleRaspberry Pi6x8cm Double side Protoboard Circuit Tinned Universal DIY Prototype PCB BoardPackage Included:100% Brand new and high quality 6x8CM Double-Side Prototype Board,Grid :about 0.1inch (2.54mm) Thickness : about1.6mm Hole diameter : Approx.1.0mm Dimension:Approx.6x8cm(W*L) \xc2\xa0Material:glass fiber Color:As shown in the picture All holes are plated through Both sides are identical\xc2\xa0\xc2\xa0Package Included:1 x\xc2\xa0 Double side Protoboard Circuit Tinned Universal DIY Prototype PCB Board 6cmx8cm PaymentShippingRefundPaymentWe accept PayPal only. But we only Accept your Ebay Address,Please Make sure it's 100% right.Payment must be received in 5 business days of auction closing.Please leave note for your special request (e.g. Colors or Size) in PayPal when you pay the order.Any special request cannot be accepted after 24 hours of payment, because most of orders will be processed instantly and same day dispatched.ShippingWe maintain high standards of excellence\xc2\xa0and strive for 100% customer satisfaction!\xc2\xa0Feedback is very important to us. We request that you contact us immediately BEFORE you give us neutral\xc2\xa0or negative\xc2\xa0feedback, so that we can satisfactorily address your concerns.\xc2\xa0RefundAll package need to wait 30 days(US only need 7-10 days),Please take care it.Less than 30 days,we can't take a refund.If the item is defect when you receive it or you are not satisfied with it, please return it within 14 days for a replacement or money back. But the items must be back in factory condition. Please contact us and double check the return address before you return it.If is item is defective in 12 months, you can return it to us. We will send you a new replacement after receiving the defective item."
p8
aS'24MHz 8 Channel USB Logic Analyzer Compatible to Saleae\xc2\xa0Speedy: 24MHzLogic samples each channel at up to 24M times per second. 8 ChannelsLogic has 8 inputs -- it can monitor 8 different digitalsignals at once.\xc2\xa0NOTE: please download the software at http://www.saleae.com/downloads'
p9
aS'Cleverbuy\xc2\xa0\xc2\xa0Highly positive Feedback\xc2\xa0\xc2\xa0Dedicated support team\xc2\xa0\xc2\xa0Great low pricesBreville VBL062 Blend-Active Personal Blender, 300W 2x 600ml Bottles White/GreenPlease note: Any mains leads supplied will be manufactured to UK specification ONLY. Please contact us if you are unsure if this item will work in your country as we will not be liable for any international return costs.Item FeaturesMake healthy homemade smoothies, shakes, slushies and protein drinks in secondsIdeal for the gym, work, school and days out \xe2\x80\x93 Just blend & go!Detachable, easy-clean dishwasher-safe blades and blending bottleBlending occurs in the top of the bottle so powder doesn\xe2\x80\x99t gather in the baseSuitable for crushing iceRecipe ideas included300W motor2 x 600ml BPA-free blending bottles with super-seal leak-proof lidOne-touch blending actionAngled stainless steel bladesNon-slip feet and cord storageWhite and lime green finishItem DescriptionThe simplest way to create nutritious and delicious smoothies and juices; the Breville Blend Active Personal Blender includes two bottles in which the drinks are made and enjoyed. Thanks to innovative technology, simply fill the bottles with all your favourite ingredients, attach to the motorised base, blitz for a few seconds and then unscrew. Your nutritious smoothie is ready to power you through a trip to the gym or a day at the office. \xc2\xa0The intelligently-designed Blend Active perfectly complements your active lifestyle \xe2\x80\x93 producing delicious smoothies and juices in next-to-no-time, and reducing the amount of washing up usually associated with making an energising drink from scratch. And when you\xe2\x80\x99re out and about, the non-drip cap and easy-grip body of the bottle offers problem-free drinking \xe2\x80\x93 perfect for those on-the-go. \xc2\xa0Blitz up fruit, veg and nuts to make the nutritious concoction of your choice. The super strong blades make light work of tougher ingredients, and can even crush ice \xe2\x80\x93 giving you greater freedom to whip together your perfect smoothie or juice. Additionally, the clever positioning and angling of the blades means that your ingredients are equally distributed throughout the mixture \xe2\x80\x93 so say goodbye to powdery build-ups at the bottom of your smoothie. \xc2\xa0At Breville, we love to give you greater freedom and licence to get creative \xe2\x80\x93 we believe this is a great source of happiness in everyday life. And this freedom means you can produce smoothies and juices which are healthier, tastier and more cost-effective than many store-bought alternatives. \xc2\xa0 General information: Power (watts)\xc2\xa0 300 Capacity (ltr)\xc2\xa0\xc2\xa0 0.6 Jug Material = Plastic Pulse Function = Yes Size = 37 x 12.8 x 12.4 cm. Weight = 1.3Kg \xc2\xa0 Box Contains: Motorised base \xe2\x80\xa2 2 x 600ml bottles \xe2\x80\xa2 Recipe ideas bookletItem Condition This is an ex-display, box damaged, customer return\xc2\xa0or\xc2\xa0returned stock\xc2\xa0etc and has been personally examined and tested by ourselves. The condition is ok and have been tested. They have some\xc2\xa0noticeable cosmetic handling marks which you may spot if you look very closely. They are complete with all their accessories, while the original packaging might be slightly tatty.PaymentShippingWe accept payment by any of the following methods: *Credit card payments on eBay can be completed by checking out with a PayPal guest account.We offer FREE shipping on all orders! Your order will be dispatched within 1 working day of receiving payment (Monday-Friday).ReturnsWe honour a\xc2\xa030 day return policy in which the buyer can return an item for a full refund.If you change your mind and you wish to return the item, you must notify us within\xc2\xa030 days of delivery. We are happy to refund the item providing it is returned unused, in its original packaging with all accessories.The buyer is responsible for return postageThe item must be returned in the same condition as it arrived inOnce returned, a refund will be issued within 3 working daysIn the unlikely event your item develops a fault please notify us! We are always happy to help!'
p10
aS"Description:There is a strong correlation between the pH of the body's internal environment and pH paper help you to maintain good healthy body by testing many usual everyday substances, including moisturized soap, lemon juice, milk, liquid detergent, moisturized soil, saliva, urine, sweat...etcThe scale reads from 1 to 14:1 - 3 indicates a very acidic substance 4 - 6 indicates an acidic substance 7 indicates neutral 8 - 11 indicates alkalinity 12 - 14 indicates a very high level of alkalinityPH 1-14 color chart in each packThe test strip color changes must be matched with the pH scale color chart within about 15 secondsPaper Size:app 45mm x 7mm (L x W)Weigh:app 3g\xc2\xa0Instruction:1.Simply press the testing strip to the object or liquid you are testing. Half second later, take out the paper and using the color chart included, compare the color change of the paper to find out the acidity level of your testing subject.2.Can not indicate the Acid or alkali solution when its density was lower than 0.01%.3.Keep dry for the rest paperPackage includes: 2 x Set of 80pcs pH test paper"
p11
aS'Product images\nDescription:\nThis\xc2\xa0 is for A Brand New 12Volt 16Amp DC Programmable Timer with LCD Digital Display. Multiple day hour minute programming options. Up to 8 cycles per day. Internal battery back up saves your settings when power is disconnected. This is a great accessory for control of solar or battery powered items. Control the time of DC lights, fans, water fountain pumps, or most any 12volt DC powered item rated at 16 amps or less. It is powered by any 12 volt DC source and will control 12 volt DC items.Features:DC:12v.Power consumption : 4.4VA.current consumption without load : 0.015mA.Cut out (MM) : \xce\xa664.Fitting Depths (mm) : 21.SWITCHING CURRENT AC.Resistive Load (LVD .IEC) 16A /250V AC.Inductive load cos . 0.6 8A /250V AC.incandescent lamp load 1000W.SWITCHING CURRENT DC : 16A/24V DC.Shortest switching time : 1 min.Shortest switching interval: 1 min.Number of channels \\"\\" 1.Number of memory spaces : 17.Operation accuracy : Type(+-)1 s/day.Ambient temperature : -10\xe2\x84\x83-55\xe2\x84\x83.Type of connection : Plug in.ACCORDING TO : EN60730-1.Installation method:screw, connector connection.Key Button:1.clock, timer, day, h+(setting the hours), m+(setting the minutes), manual override, reset.Tips:2.Before starting the program, the timer should be charged for at least\n5 minutes as the inbuild battery may be of no battery.3.Before setting the program, press the key button reset, to clear\nthe memorize data for the new instructions.4.After the program is made, please insert the timer to the plug.\nThen connect the electric appliance to the timer.5.The on and off can be set eight times each day, which can be set as follow:\nFirst option, Sunday.\nSecond option: from Monday to Friday.\nThird option: Saturday and Sunday(weekend).\nFourth option: from Monday to Saturday(working days).\nFifth option: Monday, Wednesday, Friday.\nSixth option: Tuesday, Thursday, Saturday.\nSeventh option: from Monday to Wednesday.\nEighth option: from Wednesday to Saturday.\n12 hours and 24 hours systems are optional.Specification:\nItem size: 61*59*31mm\nPackaging size: 70*67*44mm\nNet weight: 79g\nPackaging weight: 88g\nColour: White\nPacking content:1 x Programmable Timer Switch\nShipping\nItem will be shipped within 24 -48 hours after full payment is received.\nWe ship worldwide with flat rate shipping by Hong Kong Air mail. this international order may take longer to arrive,Normally the shippment to worldwide is used to take 15 to 25 business days, exclude Sat & Sun.\nPayment\nWe accept PayPal only.\nPayment must be received in 7 business days of auction closing.\nPlease leave note for your special request (e.g. Colors or Size) in ebay note when you pay the order.\nAny special request cannot be accepted after 24 hours of payment, because most of orders will be processed instantly and same day dispatched.\nWarranty\nIf the item is defect when you receive it or you are not satisfied with it, please return it within 14 days for a replacement or money back. But the items must be back in factory condition. Please contact us and double check the return address before you return it.\nIf is item is defective in 3 months, you can return it to us. We will send you a new replacement after receiving the defective item.\nContact Us\nIf you have any questions, please feel free to email our service specialists 24 Hours a Day, 7 Days a Week, and we will reply you ASAP. If no response within 24 Hours, please check the spam of mail box or kindly re-send it to us.\nWe greatly appreciate your POSITIVE feedback. Please do NOT leave negative or neutral feedback without any contact. If you haven\'t received item in 30 days, please contact us and we will arrange refund.\nOn 02-May-16 at 19:19:50 BST, seller added the following information:On 16-Dec-16 at 13:55:31 GMT, seller added the following information:'
p12
aS"Whiteboard Features:Ideal for writing important notes or dates etc, that need to be remembered and help keep you organized. Very useful for communications between Room Mates, Family or Staff members, etc. Gone to get Milk, Lunch is in the fridge, Dad phoned for you etc. The full magnet sheet is also great for holding your precious memories, safe keeping items and valuable masterpieces from budding artists onto the fridge, so you always know where they are.Specifications:100% Brand New & High Quality!Size: A4 (21cm x 29.7cm)Material: PET FilmTechnique: Hot Lamination & MagnetizationColor: White\xc2\xa0Eraser Feature:This board eraser with built-in cleaning fleece, designed for use with any glass board range or whiteboard range.Cleans without scratching or leaving residue of chalk or ink.Integrated magnet lets the eraser attach conveniently to the boardSize: 7*4*2cmColor:Red,Yellow,Green,Blue(Randomly delivery)\xc2\xa0Pen Feature:*Size: 12X130mm*Material:quality PET film with flexible magnet*Easy to Clean*Can absorb magnetic things, can be cut, can be curled.*Use:HOME,OFFICE,SCHOOL.Color:Red,Blue,Black(Randomly delivery)\xc2\xa0Package Includes:1 x A4 Magnetic Whiteboard OR Eraser\xc2\xa0 OR dry erase marker\xc2\xa0 OR 1 Set (Whiteboard +Eraser Eraser\xc2\xa0 Eraser+Pen)PAYMENTWe only accept PayPal.Payment is expected within 4 days at the end of the auction.We send all the items are based on your PayPal address. Please make sure your PayPal address is valid.SHIPMENTWe ship package mostly via regular China Post Air Mail,US buyers ship via E-packet,if you want other faster shipping way like EMS, DHL .Please contact us in advance.Please do check your shipping address to match your ebay/PayPal address,we only ship item to confirmed address.REFUNDSAccept returns duration 14 days since item delivered . If you received damaged goods, Please contact us within 14 days upon receipt of item. Items returned and not found defective will be returned at buyer's expense.Kind remind: Final purchase price do not cover any applicable tax or duty that might be charged by customs .Buyers are responsible for such charges.FEEDBACKPlease contact us if you are experiencing any trouble with your item, Because we believe anything can be resolved through communication. Thank you!"
p13
aS"Description \xc2\xa0 \xc2\xa0 \xc2\xa0 \xc2\xa0 \xc2\xa0 \xc2\xa0 \xc2\xa0 \xc2\xa0 \xc2\xa0 \xc2\xa0 \xc2\xa0 \xc2\xa0 \xc2\xa0 \xc2\xa0 \xc2\xa0 \xc2\xa0\xc2\xa0 \xc2\xa0 \xc2\xa0 \xc2\xa0 \xc2\xa0 \xc2\xa0 \xc2\xa0 \xc2\xa0 \xc2\xa0 \xc2\xa0 \xc2\xa0 \xc2\xa0 \xc2\xa0 \xc2\xa0 Specification:Brand newOverall length: approx.140mmTip width: approx.3.5mmHandle diameter: approx.16mmTesting range: 70-250VAC voltage contacts test range: 70-250VAC voltage without contact test range: 70-600VDC voltage highest tested: 2500VPolarity test: 3V-36VVoltage test: 50-500HzFeature:Waterproof, completely invade the water, can be use after dry.Allows you to check or test safely, quickly and accurately.With indicator light, can measure breakpoints, move along the contact, when the indicator does not light was breakpoint, can measure the line whether is electrified, the non-contact sensor test, safe and reliable.Length: approx.137mmMeasuring range:100-500VMultifunctional household test pencil,you can use it to test circuit and distinguish whether an object is electrified.With light indication.Slotted screwdriver function.Multi-function, double head removable.Light weight and easy to carry.Fine workmanship and durable.Package included:2pc x electrical tester penNote:Please allow 0-1cm errors due to manual measurement.Item color displayed in photos may be showing slightly different on your computer monitor since monitors are not calibrated same. \xc2\xa0 \xc2\xa0 \xc2\xa0 \xc2\xa0 \xc2\xa0 \xc2\xa0 \xc2\xa0 \xc2\xa0 \xc2\xa0 \xc2\xa0 \xc2\xa0 \xc2\xa0 \xc2\xa0Detail Image\nPayment \xc2\xa0 \xc2\xa0 \xc2\xa0 \xc2\xa0 \xc2\xa0 \xc2\xa0 \xc2\xa0 \xc2\xa01. Payment is needed to receive within 7 days after deal.if not we will close the transaction.2. We only accept PayPal.3. PayPal is the only online payment method we accept. Please make sure you have avalid/confirmed PayPal account prior bidding. And please make sure that yourPayPal registed address is the same with your eBay registed address. \xc2\xa0 \xc2\xa0 \xc2\xa0 \xc2\xa0 \xc2\xa0 \xc2\xa0 \xc2\xa0 \xc2\xa0Shipping \xc2\xa0 \xc2\xa0 \xc2\xa0 \xc2\xa0 \xc2\xa0 \xc2\xa0 \xc2\xa0 \xc2\xa0Shipping Method \xc2\xa0 \xc2\xa0 \xc2\xa0 \xc2\xa0 \xc2\xa0 \xc2\xa0 \xc2\xa0 \xc2\xa0 \xc2\xa0 \xc2\xa0 \xc2\xa0 \xc2\xa0 \xc2\xa0 \xc2\xa0 \xc2\xa0 \xc2\xa0 \xc2\xa0 \xc2\xa0 \xc2\xa0 \xc2\xa0 \xc2\xa0 \xc2\xa0 \xc2\xa0 \xc2\xa0 \xc2\xa0 \xc2\xa0 \xc2\xa0 \xc2\xa0 \xc2\xa0 \xc2\xa0 \xc2\xa0 \xc2\xa0 \xc2\xa0 \xc2\xa0 \xc2\xa0 \xc2\xa0 \xc2\xa0 \xc2\xa0 \xc2\xa0 \xc2\xa0 \xc2\xa0 \xc2\xa0 \xc2\xa0 \xc2\xa0 \xc2\xa0 \xc2\xa0 \xc2\xa0 \xc2\xa0 \xc2\xa0 \xc2\xa0 \xc2\xa0\xc2\xa0 \xc2\xa0 \xc2\xa0 \xc2\xa0 \xc2\xa0 \xc2\xa0 \xc2\xa0 \xc2\xa0 \xc2\xa0 \xc2\xa0 \xc2\xa0 \xc2\xa0 \xc2\xa0Shipping Destination \xc2\xa0 \xc2\xa0 \xc2\xa0 \xc2\xa0 \xc2\xa0 \xc2\xa0 \xc2\xa0 \xc2\xa0 \xc2\xa0 \xc2\xa0 \xc2\xa0 \xc2\xa0 \xc2\xa0 \xc2\xa0 \xc2\xa0 \xc2\xa0 \xc2\xa0 \xc2\xa0 \xc2\xa0 \xc2\xa0 \xc2\xa0 \xc2\xa0 \xc2\xa0 \xc2\xa0 \xc2\xa0 \xc2\xa0 \xc2\xa0 \xc2\xa0 \xc2\xa0 \xc2\xa0 \xc2\xa0 \xc2\xa0 \xc2\xa0 \xc2\xa0 \xc2\xa0\xc2\xa0 \xc2\xa0 \xc2\xa0 \xc2\xa0 \xc2\xa0 \xc2\xa0 \xc2\xa0 \xc2\xa0 \xc2\xa0 \xc2\xa0 \xc2\xa0 \xc2\xa0 \xc2\xa0Shipping Time \xc2\xa0 \xc2\xa0 \xc2\xa0 \xc2\xa0 \xc2\xa0 \xc2\xa0 \xc2\xa0 \xc2\xa0 \xc2\xa0 \xc2\xa0 \xc2\xa0 \xc2\xa0 \xc2\xa0 \xc2\xa0 \xc2\xa0 \xc2\xa0 \xc2\xa0 \xc2\xa0 \xc2\xa0 \xc2\xa0 \xc2\xa0 \xc2\xa0 \xc2\xa0 \xc2\xa0 \xc2\xa0 \xc2\xa0 \xc2\xa0 \xc2\xa0 \xc2\xa0 \xc2\xa0 \xc2\xa0 \xc2\xa0 \xc2\xa0 \xc2\xa0 \xc2\xa0\xc2\xa0 \xc2\xa0 \xc2\xa0 \xc2\xa0 \xc2\xa0 \xc2\xa0 \xc2\xa0 \xc2\xa0 \xc2\xa0 \xc2\xa0 \xc2\xa0 \xc2\xa0 \xc2\xa0Economy(with Tracking) \xc2\xa0 \xc2\xa0 \xc2\xa0 \xc2\xa0 \xc2\xa0 \xc2\xa0 \xc2\xa0 \xc2\xa0 \xc2\xa0 \xc2\xa0 \xc2\xa0 \xc2\xa0 \xc2\xa0 \xc2\xa0 \xc2\xa0 \xc2\xa0 \xc2\xa0 \xc2\xa0 \xc2\xa0 \xc2\xa0 \xc2\xa0 \xc2\xa0 \xc2\xa0 \xc2\xa0 \xc2\xa0 \xc2\xa0 \xc2\xa0 \xc2\xa0 \xc2\xa0 \xc2\xa0 \xc2\xa0 \xc2\xa0 \xc2\xa0 \xc2\xa0 \xc2\xa0\xc2\xa0 \xc2\xa0 \xc2\xa0 \xc2\xa0 \xc2\xa0 \xc2\xa0 \xc2\xa0 \xc2\xa0 \xc2\xa0 \xc2\xa0 \xc2\xa0 \xc2\xa0 \xc2\xa0USA \xc2\xa0 \xc2\xa0 \xc2\xa0 \xc2\xa0 \xc2\xa0 \xc2\xa0 \xc2\xa0 \xc2\xa0 \xc2\xa0 \xc2\xa0 \xc2\xa0 \xc2\xa0 \xc2\xa0 \xc2\xa0 \xc2\xa0 \xc2\xa0\xc2\xa0 \xc2\xa0 \xc2\xa0 \xc2\xa0 \xc2\xa0 \xc2\xa0 \xc2\xa0 \xc2\xa0 \xc2\xa0 \xc2\xa0 \xc2\xa0 \xc2\xa0 \xc2\xa0 \xc2\xa0 \xc2\xa0 \xc2\xa07-10\xc2\xa0working days \xc2\xa0 \xc2\xa0 \xc2\xa0 \xc2\xa0 \xc2\xa0 \xc2\xa0 \xc2\xa0 \xc2\xa0 \xc2\xa0 \xc2\xa0 \xc2\xa0 \xc2\xa0 \xc2\xa0 \xc2\xa0 \xc2\xa0 \xc2\xa0 \xc2\xa0 \xc2\xa0 \xc2\xa0 \xc2\xa0 \xc2\xa0 \xc2\xa0 \xc2\xa0 \xc2\xa0 \xc2\xa0 \xc2\xa0 \xc2\xa0 \xc2\xa0 \xc2\xa0 \xc2\xa0 \xc2\xa0 \xc2\xa0 \xc2\xa0 \xc2\xa0 \xc2\xa0 \xc2\xa0 \xc2\xa0 \xc2\xa0 \xc2\xa0 \xc2\xa0\xc2\xa0 \xc2\xa0 \xc2\xa0 \xc2\xa0 \xc2\xa0 \xc2\xa0 \xc2\xa0 \xc2\xa0Economy(without Tracking) \xc2\xa0 \xc2\xa0 \xc2\xa0 \xc2\xa0 \xc2\xa0 \xc2\xa0 \xc2\xa0 \xc2\xa0 \xc2\xa0 \xc2\xa0 \xc2\xa0 \xc2\xa0 \xc2\xa0 \xc2\xa0 \xc2\xa0 \xc2\xa0 \xc2\xa0 \xc2\xa0 \xc2\xa0 \xc2\xa0 \xc2\xa0 \xc2\xa0 \xc2\xa0 \xc2\xa0 \xc2\xa0 \xc2\xa0 \xc2\xa0 \xc2\xa0 \xc2\xa0 \xc2\xa0 \xc2\xa0 \xc2\xa0 \xc2\xa0 \xc2\xa0 \xc2\xa0\xc2\xa0 \xc2\xa0 \xc2\xa0 \xc2\xa0 \xc2\xa0 \xc2\xa0 \xc2\xa0 \xc2\xa0 \xc2\xa0 \xc2\xa0 \xc2\xa0 \xc2\xa0 \xc2\xa0Canada, United Kingdom, Austrilia, France, Germany, Spain, Ireland, Italy, Others \xc2\xa0 \xc2\xa0 \xc2\xa0 \xc2\xa0 \xc2\xa0 \xc2\xa0 \xc2\xa0 \xc2\xa0 \xc2\xa0 \xc2\xa0 \xc2\xa0 \xc2\xa0 \xc2\xa0 \xc2\xa0 \xc2\xa0 \xc2\xa0\xc2\xa0 \xc2\xa0 \xc2\xa0 \xc2\xa0 \xc2\xa0 \xc2\xa0 \xc2\xa0 \xc2\xa0 \xc2\xa0 \xc2\xa0 \xc2\xa0 \xc2\xa0 \xc2\xa0 \xc2\xa0 \xc2\xa0 \xc2\xa015-30 working days\nStandard (EMS Express) \xc2\xa0 \xc2\xa0 \xc2\xa0 \xc2\xa0 \xc2\xa0 \xc2\xa0 \xc2\xa0 \xc2\xa0 \xc2\xa0 \xc2\xa0 \xc2\xa0 \xc2\xa0 \xc2\xa0 \xc2\xa0 \xc2\xa0 \xc2\xa0 \xc2\xa0 \xc2\xa0 \xc2\xa0 \xc2\xa0 \xc2\xa0 \xc2\xa0 \xc2\xa0 \xc2\xa0 \xc2\xa0 \xc2\xa0 \xc2\xa0 \xc2\xa0 \xc2\xa0 \xc2\xa0 \xc2\xa0 \xc2\xa0 \xc2\xa0 \xc2\xa0 \xc2\xa0\xc2\xa0 \xc2\xa0 \xc2\xa0 \xc2\xa0 \xc2\xa0 \xc2\xa0 \xc2\xa0 \xc2\xa0 \xc2\xa0 \xc2\xa0 \xc2\xa0 \xc2\xa0 \xc2\xa0USA, Canada, United Kingdom, Austrilia, France, Germany, Spain, Ireland, Italy, Others \xc2\xa0 \xc2\xa0 \xc2\xa0 \xc2\xa0 \xc2\xa0 \xc2\xa0 \xc2\xa0 \xc2\xa0 \xc2\xa0 \xc2\xa0 \xc2\xa0 \xc2\xa0 \xc2\xa0 \xc2\xa0 \xc2\xa0 \xc2\xa0\xc2\xa0 \xc2\xa0 \xc2\xa0 \xc2\xa0 \xc2\xa0 \xc2\xa0 \xc2\xa0 \xc2\xa0 \xc2\xa0 \xc2\xa0 \xc2\xa0 \xc2\xa0 \xc2\xa0 \xc2\xa0 \xc2\xa0 \xc2\xa05-7\xc2\xa0working days\nExpress (DHL Express) \xc2\xa0 \xc2\xa0 \xc2\xa0 \xc2\xa0 \xc2\xa0 \xc2\xa0 \xc2\xa0 \xc2\xa0 \xc2\xa0 \xc2\xa0 \xc2\xa0 \xc2\xa0 \xc2\xa0 \xc2\xa0 \xc2\xa0 \xc2\xa0 \xc2\xa0 \xc2\xa0 \xc2\xa0 \xc2\xa0 \xc2\xa0 \xc2\xa0 \xc2\xa0 \xc2\xa0 \xc2\xa0 \xc2\xa0 \xc2\xa0 \xc2\xa0 \xc2\xa0 \xc2\xa0 \xc2\xa0 \xc2\xa0 \xc2\xa0 \xc2\xa0 \xc2\xa0\xc2\xa0 \xc2\xa0 \xc2\xa0 \xc2\xa0 \xc2\xa0 \xc2\xa0 \xc2\xa0 \xc2\xa0 \xc2\xa0 \xc2\xa0 \xc2\xa0 \xc2\xa0 \xc2\xa0USA, Canada, United Kingdom, Austrilia, France, Germany, Spain, Ireland, Italy, Others \xc2\xa0 \xc2\xa0 \xc2\xa0 \xc2\xa0 \xc2\xa0 \xc2\xa0 \xc2\xa0 \xc2\xa0 \xc2\xa0 \xc2\xa0 \xc2\xa0 \xc2\xa0 \xc2\xa0 \xc2\xa0 \xc2\xa0 \xc2\xa0\xc2\xa0 \xc2\xa0 \xc2\xa0 \xc2\xa0 \xc2\xa0 \xc2\xa0 \xc2\xa0 \xc2\xa0 \xc2\xa0 \xc2\xa0 \xc2\xa0 \xc2\xa0 \xc2\xa0 \xc2\xa0 \xc2\xa0 \xc2\xa03-4\xc2\xa0working days\nCustoms Declaration: \xc2\xa0 \xc2\xa0 \xc2\xa0 \xc2\xa0 \xc2\xa0 \xc2\xa0 \xc2\xa0 \xc2\xa0 \xc2\xa0 \xc2\xa0 \xc2\xa0 \xc2\xa0 \xc2\xa0 \xc2\xa0 \xc2\xa0 \xc2\xa0\xc2\xa0 \xc2\xa0 \xc2\xa0 \xc2\xa0 \xc2\xa0 \xc2\xa0 \xc2\xa0 \xc2\xa0Import duties, taxes and charges are not included in the itemprice or shipping charges. These charges are the buyer's responsibility. \xc2\xa0 \xc2\xa0 \xc2\xa0 \xc2\xa0 \xc2\xa0 \xc2\xa0 \xc2\xa0 \xc2\xa0 \xc2\xa0 \xc2\xa0Please check with your country's customs office to determine what these additional costs will be prior to biddingying. \xc2\xa0 \xc2\xa0 \xc2\xa0 \xc2\xa0 \xc2\xa0 \xc2\xa0 \xc2\xa0 \xc2\xa0 \xc2\xa0 \xc2\xa0 \xc2\xa0 \xc2\xa0 \xc2\xa0 \xc2\xa0 \xc2\xa0 \xc2\xa0 \xc2\xa0\xc2\xa0 \xc2\xa0 \xc2\xa0DHL can not reach to few remote areas in your country,if you choose Express and living remote areas.You should pay the additional shipping charge. If your area belongs to remote areas,the parcel can't reach, or you need to pay more freight, our customer service will contact you.If you need to add the tracking number, be sure to contact customer service before makingorders especial for the people comes from the country of Eastern Europe, the MiddleEast and South American. It needs to pay the extra shipping cost!Order can not be shipping to any P.O boxes. Order can only be shipped to physical addresses."
p14
a.